; Function Attrs: nounwind uwtable
define internal ptr @function_get_kw_defaults(ptr readnone captures(none) %0, ptr noundef %1) #0 {
  %3 = tail call ptr @PyFunction_GetKwDefaults(ptr noundef %1) #3
  %.not = icmp eq ptr %3, null
  br i1 %.not, label %9, label %4

4:                                                ; preds = %2
  %5 = load i32, ptr %3, align 8, !tbaa !3
  %6 = icmp slt i32 %5, 0
  br i1 %6, label %_Py_NewRef.exit, label %7

7:                                                ; preds = %4
  %8 = add nuw i32 %5, 1
  store i32 %8, ptr %3, align 8, !tbaa !3
  br label %_Py_NewRef.exit

9:                                                ; preds = %2
  %10 = tail call ptr @PyErr_Occurred() #3
  %.not5 = icmp eq ptr %10, null
  %_Py_NoneStruct. = select i1 %.not5, ptr @_Py_NoneStruct, ptr null
  br label %_Py_NewRef.exit

_Py_NewRef.exit:                                  ; preds = %7, %4, %9
  %.0 = phi ptr [ %_Py_NoneStruct., %9 ], [ %3, %4 ], [ %3, %7 ]
  ret ptr %.0
}